target datalayout = "e-m:e-p270:32:32-p271:32:32-p272:64:64-i64:64-i128:128-f80:128-n8:16:32:64-S128"
target triple = "x86_64-pc-linux-gnu"

%struct.lua_State = type { %struct.GCRef, i8, i8, i8, i8, %struct.MRef, %struct.GCRef, ptr, ptr, %struct.MRef, %struct.MRef, %struct.GCRef, %struct.GCRef, ptr, i32 }
%struct.MRef = type { i64 }
%struct.GCRef = type { i64 }
%union.TValue = type { i64 }

; Function Attrs: alwaysinline nounwind uwtable
define internal void @setrawlightudV(ptr noundef %0, ptr noundef %1) #4 {
  %3 = alloca ptr, align 8
  %4 = alloca ptr, align 8
  store ptr %0, ptr %3, align 8, !tbaa !22
  store ptr %1, ptr %4, align 8, !tbaa !63
  %5 = load ptr, ptr %4, align 8, !tbaa !63
  %6 = ptrtoint ptr %5 to i64
  %7 = or i64 %6, -562949953421312
  %8 = load ptr, ptr %3, align 8, !tbaa !22
  store i64 %7, ptr %8, align 8, !tbaa !26
  ret void
}

; Function Attrs: nounwind uwtable
define dso_local void @lua_pushlightuserdata(ptr noundef %0, ptr noundef %1) #0 {
  %3 = alloca ptr, align 8
  %4 = alloca ptr, align 8
  store ptr %0, ptr %3, align 8, !tbaa !4
  store ptr %1, ptr %4, align 8, !tbaa !63
  %5 = load ptr, ptr %3, align 8, !tbaa !4
  %6 = load ptr, ptr %4, align 8, !tbaa !63
  %7 = call ptr @lj_lightud_intern(ptr noundef %5, ptr noundef %6)
  store ptr %7, ptr %4, align 8, !tbaa !63
  %8 = load ptr, ptr %3, align 8, !tbaa !4
  %9 = getelementptr inbounds nuw %struct.lua_State, ptr %8, i32 0, i32 8
  %10 = load ptr, ptr %9, align 8, !tbaa !17
  %11 = load ptr, ptr %4, align 8, !tbaa !63
  call void @setrawlightudV(ptr noundef %10, ptr noundef %11)
  %12 = load ptr, ptr %3, align 8, !tbaa !4
  %13 = getelementptr inbounds nuw %struct.lua_State, ptr %12, i32 0, i32 8
  %14 = load ptr, ptr %13, align 8, !tbaa !17
  %15 = getelementptr inbounds nuw %union.TValue, ptr %14, i32 1
  store ptr %15, ptr %13, align 8, !tbaa !17
  %16 = load ptr, ptr %3, align 8, !tbaa !4
  %17 = getelementptr inbounds nuw %struct.lua_State, ptr %16, i32 0, i32 9
  %18 = getelementptr inbounds nuw %struct.MRef, ptr %17, i32 0, i32 0
  %19 = load i64, ptr %18, align 8, !tbaa !19
  %20 = inttoptr i64 %19 to ptr
  %21 = icmp uge ptr %15, %20
  br i1 %21, label %22, label %24

22:                                               ; preds = %2
  %23 = load ptr, ptr %3, align 8, !tbaa !4
  call void @lj_state_growstack1(ptr noundef %23)
  br label %24

24:                                               ; preds = %22, %2
  ret void
}