; Function Attrs: nounwind uwtable
define dso_local void @lua_pushlightuserdata(ptr noundef %0, ptr noundef %1) local_unnamed_addr #1 {
  %3 = tail call ptr @lj_lightud_intern(ptr noundef %0, ptr noundef %1) #13
  %4 = getelementptr inbounds nuw i8, ptr %0, i64 40
  %5 = load ptr, ptr %4, align 8, !tbaa !14
  %6 = ptrtoint ptr %3 to i64
  %7 = or i64 %6, -562949953421312
  store i64 %7, ptr %5, align 8, !tbaa !17
  %8 = load ptr, ptr %4, align 8, !tbaa !14
  %9 = getelementptr inbounds nuw i8, ptr %8, i64 8
  store ptr %9, ptr %4, align 8, !tbaa !14
  %10 = getelementptr inbounds nuw i8, ptr %0, i64 48
  %11 = load i64, ptr %10, align 8, !tbaa !16
  %12 = inttoptr i64 %11 to ptr
  %.not = icmp ult ptr %9, %12
  br i1 %.not, label %14, label %13

13:                                               ; preds = %2
  tail call void @lj_state_growstack1(ptr noundef nonnull %0) #13
  br label %14

14:                                               ; preds = %13, %2
  ret void
}